target datalayout = "e-m:e-p270:32:32-p271:32:32-p272:64:64-i64:64-i128:128-f80:128-n8:16:32:64-S128"
target triple = "x86_64-pc-linux-gnu"

%class.ThreadClosure = type { ptr }
%class.Handle = type { ptr }
%class.JvmtiUnitedHandshakeClosure = type <{ %class.HandshakeClosure, i32, [4 x i8], ptr, i8, i8, [6 x i8] }>
%class.HandshakeClosure = type { %class.ThreadClosure, ptr }

; Function Attrs: mustprogress nounwind uwtable
define hidden void @_ZN33GetCurrentContendedMonitorClosure10do_vthreadE6Handle(ptr noundef nonnull align 8 dereferenceable(64) %0, ptr %1) unnamed_addr #1 align 2 {
  %3 = alloca %class.Handle, align 8
  %4 = alloca ptr, align 8
  %5 = getelementptr inbounds %class.Handle, ptr %3, i32 0, i32 0
  store ptr %1, ptr %5, align 8
  store ptr %0, ptr %4, align 8
  %6 = load ptr, ptr %4, align 8
  %7 = getelementptr inbounds %class.JvmtiUnitedHandshakeClosure, ptr %6, i32 0, i32 3
  %8 = load ptr, ptr %7, align 8
  %9 = icmp eq ptr %8, null
  br i1 %9, label %10, label %12

10:                                               ; preds = %2
  %11 = getelementptr inbounds %class.JvmtiUnitedHandshakeClosure, ptr %6, i32 0, i32 1
  store i32 0, ptr %11, align 8
  br label %18

12:                                               ; preds = %2
  %13 = getelementptr inbounds %class.JvmtiUnitedHandshakeClosure, ptr %6, i32 0, i32 3
  %14 = load ptr, ptr %13, align 8
  %15 = load ptr, ptr %6, align 8
  %16 = getelementptr inbounds ptr, ptr %15, i64 0
  %17 = load ptr, ptr %16, align 8
  call void %17(ptr noundef nonnull align 8 dereferenceable(64) %6, ptr noundef %14)
  br label %18

18:                                               ; preds = %12, %10
  ret void
}