; Function Attrs: mustprogress nounwind uwtable
define hidden void @_ZN33GetCurrentContendedMonitorClosure10do_vthreadE6Handle(ptr noundef nonnull align 8 dereferenceable(64) %0, ptr nocapture readnone %1) unnamed_addr #0 align 2 {
  %3 = getelementptr inbounds i8, ptr %0, i64 24
  %4 = load ptr, ptr %3, align 8
  %5 = icmp eq ptr %4, null
  br i1 %5, label %6, label %8

6:                                                ; preds = %2
  %7 = getelementptr inbounds i8, ptr %0, i64 16
  store i32 0, ptr %7, align 8
  br label %11

8:                                                ; preds = %2
  %9 = load ptr, ptr %0, align 8
  %10 = load ptr, ptr %9, align 8
  tail call void %10(ptr noundef nonnull align 8 dereferenceable(64) %0, ptr noundef nonnull %4) #18
  br label %11

11:                                               ; preds = %8, %6
  ret void
}